; Function Attrs: nounwind uwtable
define internal range(i32 0, 2) i32 @dh_pub_cmp(ptr noundef readonly captures(none) %0, ptr noundef readonly captures(none) %1) #0 {
  %3 = getelementptr inbounds nuw i8, ptr %0, i64 32
  %4 = load ptr, ptr %3, align 8, !tbaa !42
  %5 = getelementptr inbounds nuw i8, ptr %4, i64 8
  %6 = getelementptr inbounds nuw i8, ptr %1, i64 32
  %7 = load ptr, ptr %6, align 8, !tbaa !42
  %8 = getelementptr inbounds nuw i8, ptr %7, i64 8
  %9 = getelementptr inbounds nuw i8, ptr %0, i64 8
  %10 = load ptr, ptr %9, align 8, !tbaa !33
  %11 = icmp ne ptr %10, @ossl_dhx_asn1_meth
  %12 = zext i1 %11 to i32
  %13 = tail call i32 @ossl_ffc_params_cmp(ptr noundef nonnull %5, ptr noundef nonnull %8, i32 noundef %12) #5
  %14 = icmp eq i32 %13, 0
  br i1 %14, label %23, label %15

15:                                               ; preds = %2
  %16 = load ptr, ptr %6, align 8, !tbaa !42
  %17 = getelementptr inbounds nuw i8, ptr %16, i64 112
  %18 = load ptr, ptr %17, align 8, !tbaa !23
  %19 = load ptr, ptr %3, align 8, !tbaa !42
  %20 = getelementptr inbounds nuw i8, ptr %19, i64 112
  %21 = load ptr, ptr %20, align 8, !tbaa !23
  %22 = tail call i32 @BN_cmp(ptr noundef %18, ptr noundef %21) #5
  %.not = icmp eq i32 %22, 0
  %. = zext i1 %.not to i32
  br label %23

23:                                               ; preds = %15, %2
  %.0 = phi i32 [ 0, %2 ], [ %., %15 ]
  ret i32 %.0
}